; Function Attrs: nounwind uwtable
define ptr @l_Lean_Elab_Mutual_withCommonTelescope_go___rarg___lambda__1(ptr noundef %0, ptr noundef %1, ptr noundef %2, ptr noundef %3, ptr noundef %4, ptr noundef %5, ptr noundef %6, ptr noundef %7, ptr noundef %8) #0 {
  %10 = ptrtoint ptr %3 to i64
  %11 = and i64 %10, 1
  %.not = icmp eq i64 %11, 0
  br i1 %.not, label %12, label %lean_inc.exit

12:                                               ; preds = %9
  %.val.i = load i32, ptr %3, align 4, !tbaa !8
  %13 = icmp sgt i32 %.val.i, 0
  br i1 %13, label %14, label %16, !prof !11

14:                                               ; preds = %12
  %15 = add nuw i32 %.val.i, 1
  store i32 %15, ptr %3, align 4, !tbaa !8
  br label %lean_inc.exit

16:                                               ; preds = %12
  %.not.i17 = icmp eq i32 %.val.i, 0
  br i1 %.not.i17, label %lean_inc.exit, label %17

17:                                               ; preds = %16
  tail call void @lean_inc_ref_cold(ptr noundef nonnull %3) #4
  br label %lean_inc.exit

lean_inc.exit:                                    ; preds = %17, %16, %14, %9
  %18 = tail call ptr @lean_array_push(ptr noundef %0, ptr noundef %3) #4
  %19 = getelementptr i8, ptr %1, i64 8
  %.val = load i64, ptr %19, align 8, !tbaa !12
  %20 = tail call ptr @l_Array_mapMUnsafe_map___at_Lean_Elab_Mutual_withCommonTelescope_go___spec__1(ptr noundef %3, i64 noundef %.val, i64 noundef 0, ptr noundef %1)
  br i1 %.not, label %21, label %lean_dec.exit

21:                                               ; preds = %lean_inc.exit
  %22 = load i32, ptr %3, align 4, !tbaa !8
  %23 = icmp sgt i32 %22, 1
  br i1 %23, label %24, label %26, !prof !11

24:                                               ; preds = %21
  %25 = add nsw i32 %22, -1
  store i32 %25, ptr %3, align 4, !tbaa !8
  br label %lean_dec.exit

26:                                               ; preds = %21
  %.not.i = icmp eq i32 %22, 0
  br i1 %.not.i, label %lean_dec.exit, label %27

27:                                               ; preds = %26
  tail call void @lean_dec_ref_cold(ptr noundef nonnull %3) #4
  br label %lean_dec.exit

lean_dec.exit:                                    ; preds = %27, %26, %24, %lean_inc.exit
  %28 = tail call ptr @l_Lean_Elab_Mutual_withCommonTelescope_go___rarg(ptr noundef %2, ptr noundef %18, ptr noundef %20, ptr noundef %4, ptr noundef %5, ptr noundef %6, ptr noundef %7, ptr noundef %8)
  ret ptr %28
}